target datalayout = "e-m:e-p270:32:32-p271:32:32-p272:64:64-i64:64-i128:128-f80:128-n8:16:32:64-S128"
target triple = "x86_64-pc-linux-gnu"

%"struct.Luau::NotNull" = type { ptr }
%"struct.Luau::Location" = type { %"struct.Luau::Position", %"struct.Luau::Position" }
%"struct.Luau::Position" = type { i32, i32 }
%"class.Luau::AstNode.base" = type <{ ptr, i32, %"struct.Luau::Location" }>
%"class.std::optional" = type { %"struct.std::_Optional_base" }
%"struct.std::_Optional_base" = type { %"struct.std::_Optional_payload" }
%"struct.std::_Optional_payload" = type { %"struct.std::_Optional_payload_base.base", [3 x i8] }
%"struct.std::_Optional_payload_base.base" = type <{ %"union.std::_Optional_payload_base<Luau::Location>::_Storage", i8 }>
%"union.std::_Optional_payload_base<Luau::Location>::_Storage" = type { %"struct.Luau::Location" }
%"class.Luau::AstExpr.base" = type { %"class.Luau::AstNode.base" }
%"struct.Luau::AstArray.169" = type { ptr, i64 }
%"struct.Luau::AstLocal" = type { %"struct.Luau::AstName", %"struct.Luau::Location", ptr, i64, i64, ptr }
%"struct.Luau::AstName" = type { ptr }
%"class.Luau::AstExprFunction" = type <{ %"class.Luau::AstExpr.base", [4 x i8], %"struct.Luau::AstArray.229", %"struct.Luau::AstArray.230", %"struct.Luau::AstArray.231", ptr, %"struct.Luau::AstArray.169", %"class.std::optional.232", i8, [3 x i8], %"struct.Luau::Location", [4 x i8], ptr, ptr, i64, %"struct.Luau::AstName", %"class.std::optional", [4 x i8] }>
%"struct.Luau::AstArray.229" = type { ptr, i64 }
%"struct.Luau::AstArray.230" = type { ptr, i64 }
%"struct.Luau::AstArray.231" = type { ptr, i64 }
%"class.std::optional.232" = type { %"struct.std::_Optional_base.233" }
%"struct.std::_Optional_base.233" = type { %"struct.std::_Optional_payload.235" }
%"struct.std::_Optional_payload.235" = type { %"struct.std::_Optional_payload_base.base.238", [7 x i8] }
%"struct.std::_Optional_payload_base.base.238" = type <{ %"union.std::_Optional_payload_base<Luau::AstTypeList>::_Storage", i8 }>
%"union.std::_Optional_payload_base<Luau::AstTypeList>::_Storage" = type { %"struct.Luau::AstTypeList" }
%"struct.Luau::AstTypeList" = type { %"struct.Luau::AstArray.237", ptr }
%"struct.Luau::AstArray.237" = type { ptr, i64 }

; Function Attrs: mustprogress nounwind uwtable
define linkonce_odr dso_local noundef ptr @_ZNK4Luau8AstArrayIPNS_8AstLocalEE3endEv(ptr noundef nonnull align 8 dereferenceable(16) %0) #2 comdat align 2 {
  %2 = alloca ptr, align 8
  store ptr %0, ptr %2, align 8, !tbaa !233
  %3 = load ptr, ptr %2, align 8
  %4 = getelementptr inbounds nuw %"struct.Luau::AstArray.169", ptr %3, i32 0, i32 0
  %5 = load ptr, ptr %4, align 8, !tbaa !350
  %6 = getelementptr inbounds nuw %"struct.Luau::AstArray.169", ptr %3, i32 0, i32 1
  %7 = load i64, ptr %6, align 8, !tbaa !351
  %8 = getelementptr inbounds nuw ptr, ptr %5, i64 %7
  ret ptr %8
}

; Function Attrs: mustprogress nounwind uwtable
define linkonce_odr dso_local noundef ptr @_ZNK4Luau8AstArrayIPNS_8AstLocalEE5beginEv(ptr noundef nonnull align 8 dereferenceable(16) %0) #2 comdat align 2 {
  %2 = alloca ptr, align 8
  store ptr %0, ptr %2, align 8, !tbaa !233
  %3 = load ptr, ptr %2, align 8
  %4 = getelementptr inbounds nuw %"struct.Luau::AstArray.169", ptr %3, i32 0, i32 0
  %5 = load ptr, ptr %4, align 8, !tbaa !350
  ret ptr %5
}

; Function Attrs: mustprogress uwtable
define dso_local noundef zeroext i1 @_ZN4Luau14AnyTypeSummary10hasArgAnysEPKNS_5ScopeEPNS_15AstExprFunctionEPKNS_6ModuleENS_7NotNullINS_12BuiltinTypesEEE(ptr noundef nonnull align 8 dereferenceable(288) %0, ptr noundef %1, ptr noundef %2, ptr noundef %3, ptr %4) #8 align 2 {
  %6 = alloca i1, align 1
  %7 = alloca %"struct.Luau::NotNull", align 8
  %8 = alloca ptr, align 8
  %9 = alloca ptr, align 8
  %10 = alloca ptr, align 8
  %11 = alloca ptr, align 8
  %12 = alloca ptr, align 8
  %13 = alloca ptr, align 8
  %14 = alloca ptr, align 8
  %15 = alloca i32, align 4
  %16 = alloca ptr, align 8
  %17 = alloca ptr, align 8
  %18 = alloca %"struct.Luau::NotNull", align 8
  %19 = getelementptr inbounds nuw %"struct.Luau::NotNull", ptr %7, i32 0, i32 0
  store ptr %4, ptr %19, align 8
  store ptr %0, ptr %8, align 8, !tbaa !42
  store ptr %1, ptr %9, align 8, !tbaa !52
  store ptr %2, ptr %10, align 8, !tbaa !412
  store ptr %3, ptr %11, align 8, !tbaa !44
  %20 = load ptr, ptr %8, align 8
  %21 = load ptr, ptr %10, align 8, !tbaa !412
  %22 = getelementptr inbounds nuw %"class.Luau::AstExprFunction", ptr %21, i32 0, i32 6
  %23 = getelementptr inbounds nuw %"struct.Luau::AstArray.169", ptr %22, i32 0, i32 1
  %24 = load i64, ptr %23, align 8, !tbaa !415
  %25 = icmp ugt i64 %24, 0
  br i1 %25, label %26, label %70

26:                                               ; preds = %5
  call void @llvm.lifetime.start.p0(i64 8, ptr %12) #4
  %27 = load ptr, ptr %10, align 8, !tbaa !412
  %28 = getelementptr inbounds nuw %"class.Luau::AstExprFunction", ptr %27, i32 0, i32 6
  store ptr %28, ptr %12, align 8, !tbaa !233
  call void @llvm.lifetime.start.p0(i64 8, ptr %13) #4
  %29 = load ptr, ptr %12, align 8, !tbaa !233
  %30 = call noundef ptr @_ZNK4Luau8AstArrayIPNS_8AstLocalEE5beginEv(ptr noundef nonnull align 8 dereferenceable(16) %29)
  store ptr %30, ptr %13, align 8, !tbaa !235
  call void @llvm.lifetime.start.p0(i64 8, ptr %14) #4
  %31 = load ptr, ptr %12, align 8, !tbaa !233
  %32 = call noundef ptr @_ZNK4Luau8AstArrayIPNS_8AstLocalEE3endEv(ptr noundef nonnull align 8 dereferenceable(16) %31)
  store ptr %32, ptr %14, align 8, !tbaa !235
  br label %33

33:                                               ; preds = %64, %26
  %34 = load ptr, ptr %13, align 8, !tbaa !235
  %35 = load ptr, ptr %14, align 8, !tbaa !235
  %36 = icmp ne ptr %34, %35
  br i1 %36, label %38, label %37

37:                                               ; preds = %33
  store i32 2, ptr %15, align 4
  br label %67

38:                                               ; preds = %33
  call void @llvm.lifetime.start.p0(i64 8, ptr %16) #4
  %39 = load ptr, ptr %13, align 8, !tbaa !235
  %40 = load ptr, ptr %39, align 8, !tbaa !237
  store ptr %40, ptr %16, align 8, !tbaa !237
  %41 = load ptr, ptr %16, align 8, !tbaa !237
  %42 = getelementptr inbounds nuw %"struct.Luau::AstLocal", ptr %41, i32 0, i32 5
  %43 = load ptr, ptr %42, align 8, !tbaa !243
  %44 = icmp ne ptr %43, null
  br i1 %44, label %45, label %60

45:                                               ; preds = %38
  call void @llvm.lifetime.start.p0(i64 8, ptr %17) #4
  %46 = load ptr, ptr %16, align 8, !tbaa !237
  %47 = getelementptr inbounds nuw %"struct.Luau::AstLocal", ptr %46, i32 0, i32 5
  %48 = load ptr, ptr %47, align 8, !tbaa !243
  %49 = load ptr, ptr %11, align 8, !tbaa !44
  call void @llvm.memcpy.p0.p0.i64(ptr align 8 %18, ptr align 8 %7, i64 8, i1 false), !tbaa.struct !49
  %50 = getelementptr inbounds nuw %"struct.Luau::NotNull", ptr %18, i32 0, i32 0
  %51 = load ptr, ptr %50, align 8
  %52 = call noundef ptr @_ZN4Luau14AnyTypeSummary16lookupAnnotationEPNS_7AstTypeEPKNS_6ModuleENS_7NotNullINS_12BuiltinTypesEEE(ptr noundef nonnull align 8 dereferenceable(288) %20, ptr noundef %48, ptr noundef %49, ptr %51)
  store ptr %52, ptr %17, align 8, !tbaa !246
  %53 = load ptr, ptr %17, align 8, !tbaa !246
  %54 = call noundef zeroext i1 @_ZN4Luau14AnyTypeSummary11containsAnyEPKNS_4TypeE(ptr noundef nonnull align 8 dereferenceable(288) %20, ptr noundef %53)
  br i1 %54, label %55, label %56

55:                                               ; preds = %45
  store i1 true, ptr %6, align 1
  store i32 1, ptr %15, align 4
  br label %57

56:                                               ; preds = %45
  store i32 0, ptr %15, align 4
  br label %57

57:                                               ; preds = %56, %55
  call void @llvm.lifetime.end.p0(i64 8, ptr %17) #4
  %58 = load i32, ptr %15, align 4
  switch i32 %58, label %61 [
    i32 0, label %59
  ]

59:                                               ; preds = %57
  br label %60

60:                                               ; preds = %59, %38
  store i32 0, ptr %15, align 4
  br label %61

61:                                               ; preds = %60, %57
  call void @llvm.lifetime.end.p0(i64 8, ptr %16) #4
  %62 = load i32, ptr %15, align 4
  switch i32 %62, label %67 [
    i32 0, label %63
  ]

63:                                               ; preds = %61
  br label %64

64:                                               ; preds = %63
  %65 = load ptr, ptr %13, align 8, !tbaa !235
  %66 = getelementptr inbounds nuw ptr, ptr %65, i32 1
  store ptr %66, ptr %13, align 8, !tbaa !235
  br label %33

67:                                               ; preds = %61, %37
  call void @llvm.lifetime.end.p0(i64 8, ptr %14) #4
  call void @llvm.lifetime.end.p0(i64 8, ptr %13) #4
  call void @llvm.lifetime.end.p0(i64 8, ptr %12) #4
  %68 = load i32, ptr %15, align 4
  switch i32 %68, label %73 [
    i32 2, label %69
    i32 1, label %71
  ]

69:                                               ; preds = %67
  br label %70

70:                                               ; preds = %69, %5
  store i1 false, ptr %6, align 1
  br label %71

71:                                               ; preds = %70, %67
  %72 = load i1, ptr %6, align 1
  ret i1 %72

73:                                               ; preds = %67
  unreachable
}