; Function Attrs: mustprogress uwtable
define dso_local noundef zeroext i1 @_ZN4Luau14AnyTypeSummary10hasArgAnysEPKNS_5ScopeEPNS_15AstExprFunctionEPKNS_6ModuleENS_7NotNullINS_12BuiltinTypesEEE(ptr noundef nonnull align 8 dereferenceable(288) %0, ptr noundef readnone captures(none) %1, ptr noundef readonly captures(none) %2, ptr noundef readonly captures(none) %3, ptr %4) local_unnamed_addr #6 align 2 {
  %6 = getelementptr inbounds nuw i8, ptr %2, i64 96
  %7 = load i64, ptr %6, align 8, !tbaa !260
  %.not = icmp eq i64 %7, 0
  br i1 %.not, label %.thread, label %.lr.ph.preheader

.lr.ph.preheader:                                 ; preds = %5
  %8 = getelementptr inbounds nuw i8, ptr %2, i64 88
  %9 = load ptr, ptr %8, align 8, !tbaa !181
  %10 = getelementptr inbounds nuw ptr, ptr %9, i64 %7
  br label %.lr.ph

.lr.ph:                                           ; preds = %.lr.ph.preheader, %.critedge
  %.01829 = phi ptr [ %17, %.critedge ], [ %9, %.lr.ph.preheader ]
  %11 = load ptr, ptr %.01829, align 8, !tbaa !188
  %12 = getelementptr inbounds nuw i8, ptr %11, i64 48
  %13 = load ptr, ptr %12, align 8, !tbaa !193
  %.not24 = icmp eq ptr %13, null
  br i1 %.not24, label %.critedge, label %14

14:                                               ; preds = %.lr.ph
  %15 = tail call noundef ptr @_ZN4Luau14AnyTypeSummary16lookupAnnotationEPNS_7AstTypeEPKNS_6ModuleENS_7NotNullINS_12BuiltinTypesEEE(ptr noundef nonnull align 8 dereferenceable(288) %0, ptr noundef nonnull %13, ptr noundef %3, ptr %4)
  %16 = tail call noundef zeroext i1 @_ZN4Luau14AnyTypeSummary11containsAnyEPKNS_4TypeE(ptr noundef nonnull align 8 dereferenceable(288) %0, ptr noundef %15)
  br i1 %16, label %.thread, label %.critedge

.critedge:                                        ; preds = %14, %.lr.ph
  %17 = getelementptr inbounds nuw i8, ptr %.01829, i64 8
  %.not23 = icmp eq ptr %17, %10
  br i1 %.not23, label %.thread, label %.lr.ph

.thread:                                          ; preds = %.critedge, %14, %5
  %.5 = phi i1 [ false, %5 ], [ false, %.critedge ], [ true, %14 ]
  ret i1 %.5
}